(lp1
(lp2
(csage.rings.integer
make_integer
p3
(S'1'
tRp4
g3
(S'0'
tRp5
tp6
a(g5
g4
tp7
aa(lp8
g6
a(g3
(S'1'
tRp9
g3
(S'1'
tRp10
tp11
ag7
aa(lp12
g6
a(g3
(S'2'
tRp13
g3
(S'1'
tRp14
tp15
ag11
ag7
aa(lp16
g6
ag11
a(g3
(S'1'
tRp17
g3
(S'2'
tRp18
tp19
ag7
aa(lp20
g6
a(g3
(S'3'
tRp21
g3
(S'1'
tRp22
tp23
ag15
ag11
ag7
aa(lp24
g6
ag15
a(g3
(S'3'
tRp25
g3
(S'2'
tRp26
tp27
ag11
ag7
aa(lp28
g6
ag15
ag11
a(g3
(S'1'
tRp29
g3
(S'2'
tRp30
tp31
ag7
aa(lp32
g6
ag11
a(g3
(S'2'
tRp33
g3
(S'3'
tRp34
tp35
ag19
ag7
aa(lp36
g6
ag11
ag19
a(g3
(S'1'
tRp37
g3
(S'3'
tRp38
tp39
ag7
aa(lp40
g6
a(g3
(S'4'
tRp41
g3
(S'1'
tRp42
tp43
ag23
ag15
ag11
ag7
aa(lp44
g6
ag23
ag15
a(g3
(S'3'
tRp45
g3
(S'2'
tRp46
tp47
ag11
ag7
aa(lp48
g6
ag23
ag15
ag11
a(g3
(S'1'
tRp49
g3
(S'2'
tRp50
tp51
ag7
aa(lp52
g6
ag15
ag27
ag11
a(g3
(S'1'
tRp53
g3
(S'2'
tRp54
tp55
ag7
aa(lp56
g6
ag15
ag11
a(g3
(S'2'
tRp57
g3
(S'3'
tRp58
tp59
ag31
ag7
aa(lp60
g6
ag15
ag11
ag31
a(g3
(S'1'
tRp61
g3
(S'3'
tRp62
tp63
ag7
aa(lp64
g6
ag11
ag35
ag19
a(g3
(S'1'
tRp65
g3
(S'3'
tRp66
tp67
ag7
aa(lp68
g6
ag11
ag19
ag39
a(g3
(S'1'
tRp69
g3
(S'4'
tRp70
tp71
ag7
aa(lp72
g6
a(g3
(S'5'
tRp73
g3
(S'1'
tRp74
tp75
ag43
ag23
ag15
ag11
ag7
aa(lp76
g6
ag43
ag23
ag15
a(g3
(S'3'
tRp77
g3
(S'2'
tRp78
tp79
ag11
ag7
aa(lp80
g6
ag43
ag23
ag15
ag11
a(g3
(S'1'
tRp81
g3
(S'2'
tRp82
tp83
ag7
aa(lp84
g6
ag23
ag15
ag47
ag11
a(g3
(S'1'
tRp85
g3
(S'2'
tRp86
tp87
ag7
aa(lp88
g6
ag23
ag15
ag11
a(g3
(S'2'
tRp89
g3
(S'3'
tRp90
tp91
ag51
ag7
aa(lp92
g6
ag23
ag15
ag11
ag51
a(g3
(S'1'
tRp93
g3
(S'3'
tRp94
tp95
ag7
aa(lp96
g6
ag15
ag27
ag11
a(g3
(S'2'
tRp97
g3
(S'3'
tRp98
tp99
ag55
ag7
aa(lp100
g6
ag15
ag27
ag11
ag55
a(g3
(S'1'
tRp101
g3
(S'3'
tRp102
tp103
ag7
aa(lp104
g6
ag15
ag11
ag59
ag31
a(g3
(S'1'
tRp105
g3
(S'3'
tRp106
tp107
ag7
aa(lp108
g6
ag15
ag11
ag31
ag63
a(g3
(S'1'
tRp109
g3
(S'4'
tRp110
tp111
ag7
aa(lp112
g6
ag11
ag35
ag19
ag67
a(g3
(S'1'
tRp113
g3
(S'4'
tRp114
tp115
ag7
aa(lp116
g6
ag11
ag19
ag39
ag71
a(g3
(S'1'
tRp117
g3
(S'5'
tRp118
tp119
ag7
aa(lp120
g6
ag75
ag43
ag23
ag15
a(g3
(S'3'
tRp121
g3
(S'2'
tRp122
tp123
ag11
ag7
aa(lp124
g6
ag75
ag43
ag23
ag15
ag11
a(g3
(S'1'
tRp125
g3
(S'2'
tRp126
tp127
ag7
aa(lp128
g6
ag43
ag23
ag15
ag79
ag11
a(g3
(S'1'
tRp129
g3
(S'2'
tRp130
tp131
ag7
aa(lp132
g6
ag43
ag23
ag15
ag11
a(g3
(S'2'
tRp133
g3
(S'3'
tRp134
tp135
ag83
ag7
aa(lp136
g6
ag43
ag23
ag15
ag11
ag83
a(g3
(S'1'
tRp137
g3
(S'3'
tRp138
tp139
ag7
aa(lp140
g6
ag23
ag15
ag47
ag11
a(g3
(S'2'
tRp141
g3
(S'3'
tRp142
tp143
ag87
ag7
aa(lp144
g6
ag23
ag15
ag47
ag11
ag87
a(g3
(S'1'
tRp145
g3
(S'3'
tRp146
tp147
ag7
aa(lp148
g6
ag23
ag15
ag11
ag91
ag51
a(g3
(S'1'
tRp149
g3
(S'3'
tRp150
tp151
ag7
aa(lp152
g6
ag23
ag15
ag11
ag51
ag95
a(g3
(S'1'
tRp153
g3
(S'4'
tRp154
tp155
ag7
aa(lp156
g6
ag15
ag27
ag11
ag99
ag55
a(g3
(S'1'
tRp157
g3
(S'3'
tRp158
tp159
ag7
aa(lp160
g6
ag15
ag27
ag11
ag55
ag103
a(g3
(S'1'
tRp161
g3
(S'4'
tRp162
tp163
ag7
aa(lp164
g6
ag15
ag11
ag59
ag31
ag107
a(g3
(S'1'
tRp165
g3
(S'4'
tRp166
tp167
ag7
aa(lp168
g6
ag15
ag11
ag31
ag63
ag111
a(g3
(S'1'
tRp169
g3
(S'5'
tRp170
tp171
ag7
aa(lp172
g6
ag11
ag35
ag19
ag67
ag115
a(g3
(S'1'
tRp173
g3
(S'5'
tRp174
tp175
ag7
aa(lp176
g6
ag75
ag43
ag23
ag15
ag123
ag11
a(g3
(S'1'
tRp177
g3
(S'2'
tRp178
tp179
ag7
aa(lp180
g6
ag75
ag43
ag23
ag15
ag11
a(g3
(S'2'
tRp181
g3
(S'3'
tRp182
tp183
ag127
ag7
aa(lp184
g6
ag75
ag43
ag23
ag15
ag11
ag127
a(g3
(S'1'
tRp185
g3
(S'3'
tRp186
tp187
ag7
aa(lp188
g6
ag43
ag23
ag15
ag79
ag11
a(g3
(S'2'
tRp189
g3
(S'3'
tRp190
tp191
ag131
ag7
aa(lp192
g6
ag43
ag23
ag15
ag79
ag11
ag131
a(g3
(S'1'
tRp193
g3
(S'3'
tRp194
tp195
ag7
aa(lp196
g6
ag43
ag23
ag15
ag11
ag135
ag83
a(g3
(S'1'
tRp197
g3
(S'3'
tRp198
tp199
ag7
aa(lp200
g6
ag43
ag23
ag15
ag11
ag83
ag139
a(g3
(S'1'
tRp201
g3
(S'4'
tRp202
tp203
ag7
aa(lp204
g6
ag23
ag15
ag47
ag11
ag143
ag87
a(g3
(S'1'
tRp205
g3
(S'3'
tRp206
tp207
ag7
aa(lp208
g6
ag23
ag15
ag47
ag11
ag87
ag147
a(g3
(S'1'
tRp209
g3
(S'4'
tRp210
tp211
ag7
aa(lp212
g6
ag23
ag15
ag11
ag91
ag51
ag151
a(g3
(S'1'
tRp213
g3
(S'4'
tRp214
tp215
ag7
aa(lp216
g6
ag23
ag15
ag11
ag51
ag95
ag155
a(g3
(S'1'
tRp217
g3
(S'5'
tRp218
tp219
ag7
aa(lp220
g6
ag15
ag27
ag11
ag99
ag55
ag159
a(g3
(S'1'
tRp221
g3
(S'4'
tRp222
tp223
ag7
aa(lp224
g6
ag15
ag27
ag11
ag55
ag103
ag163
a(g3
(S'1'
tRp225
g3
(S'5'
tRp226
tp227
ag7
aa(lp228
g6
ag15
ag11
ag59
ag31
ag107
ag167
a(g3
(S'1'
tRp229
g3
(S'5'
tRp230
tp231
ag7
aa(lp232
g6
ag75
ag43
ag23
ag15
ag123
ag11
a(g3
(S'2'
tRp233
g3
(S'3'
tRp234
tp235
ag179
ag7
aa(lp236
g6
ag75
ag43
ag23
ag15
ag123
ag11
ag179
a(g3
(S'1'
tRp237
g3
(S'3'
tRp238
tp239
ag7
aa(lp240
g6
ag75
ag43
ag23
ag15
ag11
ag183
ag127
a(g3
(S'1'
tRp241
g3
(S'3'
tRp242
tp243
ag7
aa(lp244
g6
ag75
ag43
ag23
ag15
ag11
ag127
ag187
a(g3
(S'1'
tRp245
g3
(S'4'
tRp246
tp247
ag7
aa(lp248
g6
ag43
ag23
ag15
ag79
ag11
ag191
ag131
a(g3
(S'1'
tRp249
g3
(S'3'
tRp250
tp251
ag7
aa(lp252
g6
ag43
ag23
ag15
ag79
ag11
ag131
ag195
a(g3
(S'1'
tRp253
g3
(S'4'
tRp254
tp255
ag7
aa(lp256
g6
ag43
ag23
ag15
ag11
ag135
ag83
ag199
a(g3
(S'1'
tRp257
g3
(S'4'
tRp258
tp259
ag7
aa(lp260
g6
ag43
ag23
ag15
ag11
ag83
ag139
ag203
a(g3
(S'1'
tRp261
g3
(S'5'
tRp262
tp263
ag7
aa(lp264
g6
ag23
ag15
ag47
ag11
ag143
ag87
ag207
a(g3
(S'1'
tRp265
g3
(S'4'
tRp266
tp267
ag7
aa(lp268
g6
ag23
ag15
ag47
ag11
ag87
ag147
ag211
a(g3
(S'1'
tRp269
g3
(S'5'
tRp270
tp271
ag7
aa(lp272
g6
ag23
ag15
ag11
ag91
ag51
ag151
ag215
a(g3
(S'1'
tRp273
g3
(S'5'
tRp274
tp275
ag7
aa(lp276
g6
ag15
ag27
ag11
ag99
ag55
ag159
ag223
a(g3
(S'1'
tRp277
g3
(S'5'
tRp278
tp279
ag7
aa(lp280
g6
ag75
ag43
ag23
ag15
ag123
ag11
ag235
ag179
a(g3
(S'1'
tRp281
g3
(S'3'
tRp282
tp283
ag7
aa(lp284
g6
ag75
ag43
ag23
ag15
ag123
ag11
ag179
ag239
a(g3
(S'1'
tRp285
g3
(S'4'
tRp286
tp287
ag7
aa(lp288
g6
ag75
ag43
ag23
ag15
ag11
ag183
ag127
ag243
a(g3
(S'1'
tRp289
g3
(S'4'
tRp290
tp291
ag7
aa(lp292
g6
ag75
ag43
ag23
ag15
ag11
ag127
ag187
ag247
a(g3
(S'1'
tRp293
g3
(S'5'
tRp294
tp295
ag7
aa(lp296
g6
ag43
ag23
ag15
ag79
ag11
ag191
ag131
ag251
a(g3
(S'1'
tRp297
g3
(S'4'
tRp298
tp299
ag7
aa(lp300
g6
ag43
ag23
ag15
ag79
ag11
ag131
ag195
ag255
a(g3
(S'1'
tRp301
g3
(S'5'
tRp302
tp303
ag7
aa(lp304
g6
ag43
ag23
ag15
ag11
ag135
ag83
ag199
ag259
a(g3
(S'1'
tRp305
g3
(S'5'
tRp306
tp307
ag7
aa(lp308
g6
ag23
ag15
ag47
ag11
ag143
ag87
ag207
ag267
a(g3
(S'1'
tRp309
g3
(S'5'
tRp310
tp311
ag7
aa(lp312
g6
ag75
ag43
ag23
ag15
ag123
ag11
ag235
ag179
ag283
a(g3
(S'1'
tRp313
g3
(S'4'
tRp314
tp315
ag7
aa(lp316
g6
ag75
ag43
ag23
ag15
ag123
ag11
ag179
ag239
ag287
a(g3
(S'1'
tRp317
g3
(S'5'
tRp318
tp319
ag7
aa(lp320
g6
ag75
ag43
ag23
ag15
ag11
ag183
ag127
ag243
ag291
a(g3
(S'1'
tRp321
g3
(S'5'
tRp322
tp323
ag7
aa(lp324
g6
ag43
ag23
ag15
ag79
ag11
ag191
ag131
ag251
ag299
a(g3
(S'1'
tRp325
g3
(S'5'
tRp326
tp327
ag7
aa(lp328
g6
ag75
ag43
ag23
ag15
ag123
ag11
ag235
ag179
ag283
ag315
a(g3
(S'1'
tRp329
g3
(S'5'
tRp330
tp331
ag7
aa.